target datalayout = "e-m:e-p270:32:32-p271:32:32-p272:64:64-i64:64-i128:128-f80:128-n8:16:32:64-S128"
target triple = "x86_64-pc-linux-gnu"

%"struct.boost::charconv::from_chars_result_t" = type { ptr, i32 }
%"struct.boost::charconv::detail::fast_float::parse_options_t" = type <{ i32, i8, [3 x i8] }>

; Function Attrs: noinline noreturn nounwind uwtable
define linkonce_odr hidden void @__clang_call_terminate(ptr noundef %0) #4 comdat {
  %2 = call ptr @__cxa_begin_catch(ptr %0) #14
  call void @_ZSt9terminatev() #15
  unreachable
}

; Function Attrs: mustprogress nounwind uwtable
define linkonce_odr hidden void @_ZN5boost8charconv6detail10fast_float15parse_options_tIcEC2ENS0_12chars_formatEc(ptr noundef nonnull align 4 dereferenceable(5) %0, i32 noundef %1, i8 noundef signext %2) unnamed_addr #0 comdat align 2 {
  %4 = alloca ptr, align 8
  %5 = alloca i32, align 4
  %6 = alloca i8, align 1
  store ptr %0, ptr %4, align 8, !tbaa !3
  store i32 %1, ptr %5, align 4, !tbaa !7
  store i8 %2, ptr %6, align 1, !tbaa !29
  %7 = load ptr, ptr %4, align 8
  %8 = getelementptr inbounds nuw %"struct.boost::charconv::detail::fast_float::parse_options_t", ptr %7, i32 0, i32 0
  %9 = load i32, ptr %5, align 4, !tbaa !7
  store i32 %9, ptr %8, align 4, !tbaa !56
  %10 = getelementptr inbounds nuw %"struct.boost::charconv::detail::fast_float::parse_options_t", ptr %7, i32 0, i32 1
  %11 = load i8, ptr %6, align 1, !tbaa !29
  store i8 %11, ptr %10, align 4, !tbaa !58
  ret void
}

; Function Attrs: mustprogress nounwind uwtable
define linkonce_odr hidden { ptr, i32 } @_ZN5boost8charconv6detail10fast_float10from_charsIfcEENS0_19from_chars_result_tIT0_EEPKS5_S8_RT_NS0_12chars_formatE(ptr noundef %0, ptr noundef %1, ptr noundef nonnull align 4 dereferenceable(4) %2, i32 noundef %3) #0 comdat personality ptr @__gxx_personality_v0 {
  %5 = alloca %"struct.boost::charconv::from_chars_result_t", align 8
  %6 = alloca ptr, align 8
  %7 = alloca ptr, align 8
  %8 = alloca ptr, align 8
  %9 = alloca i32, align 4
  %10 = alloca %"struct.boost::charconv::detail::fast_float::parse_options_t", align 4
  store ptr %0, ptr %6, align 8, !tbaa !3
  store ptr %1, ptr %7, align 8, !tbaa !3
  store ptr %2, ptr %8, align 8, !tbaa !3
  store i32 %3, ptr %9, align 4, !tbaa !7
  %11 = load ptr, ptr %6, align 8, !tbaa !3
  %12 = load ptr, ptr %7, align 8, !tbaa !3
  %13 = load ptr, ptr %8, align 8, !tbaa !3
  %14 = load i32, ptr %9, align 4, !tbaa !7
  invoke void @_ZN5boost8charconv6detail10fast_float15parse_options_tIcEC2ENS0_12chars_formatEc(ptr noundef nonnull align 4 dereferenceable(5) %10, i32 noundef %14, i8 noundef signext 46)
          to label %15 unwind label %23

15:                                               ; preds = %4
  %16 = load i64, ptr %10, align 4
  %17 = call { ptr, i32 } @_ZN5boost8charconv6detail10fast_float19from_chars_advancedIfcEENS0_19from_chars_result_tIT0_EEPKS5_S8_RT_NS2_15parse_options_tIS5_EE(ptr noundef %11, ptr noundef %12, ptr noundef nonnull align 4 dereferenceable(4) %13, i64 %16) #14
  %18 = getelementptr inbounds nuw { ptr, i32 }, ptr %5, i32 0, i32 0
  %19 = extractvalue { ptr, i32 } %17, 0
  store ptr %19, ptr %18, align 8
  %20 = getelementptr inbounds nuw { ptr, i32 }, ptr %5, i32 0, i32 1
  %21 = extractvalue { ptr, i32 } %17, 1
  store i32 %21, ptr %20, align 8
  %22 = load { ptr, i32 }, ptr %5, align 8
  ret { ptr, i32 } %22

23:                                               ; preds = %4
  %24 = landingpad { ptr, i32 }
          catch ptr null
  %25 = extractvalue { ptr, i32 } %24, 0
  call void @__clang_call_terminate(ptr %25) #15
  unreachable
}

; Function Attrs: mustprogress nounwind uwtable
define { ptr, i32 } @_ZN5boost8charconv17from_chars_erangeEPKcS2_RfNS0_12chars_formatE(ptr noundef %0, ptr noundef %1, ptr noundef nonnull align 4 dereferenceable(4) %2, i32 noundef %3) #0 {
  %5 = alloca %"struct.boost::charconv::from_chars_result_t", align 8
  %6 = alloca ptr, align 8
  %7 = alloca ptr, align 8
  %8 = alloca ptr, align 8
  %9 = alloca i32, align 4
  store ptr %0, ptr %6, align 8, !tbaa !3
  store ptr %1, ptr %7, align 8, !tbaa !3
  store ptr %2, ptr %8, align 8, !tbaa !3
  store i32 %3, ptr %9, align 4, !tbaa !7
  %10 = load i32, ptr %9, align 4, !tbaa !7
  %11 = icmp ne i32 %10, 4
  br i1 %11, label %12, label %22

12:                                               ; preds = %4
  %13 = load ptr, ptr %6, align 8, !tbaa !3
  %14 = load ptr, ptr %7, align 8, !tbaa !3
  %15 = load ptr, ptr %8, align 8, !tbaa !3
  %16 = load i32, ptr %9, align 4, !tbaa !7
  %17 = call { ptr, i32 } @_ZN5boost8charconv6detail10fast_float10from_charsIfcEENS0_19from_chars_result_tIT0_EEPKS5_S8_RT_NS0_12chars_formatE(ptr noundef %13, ptr noundef %14, ptr noundef nonnull align 4 dereferenceable(4) %15, i32 noundef %16) #14
  %18 = getelementptr inbounds nuw { ptr, i32 }, ptr %5, i32 0, i32 0
  %19 = extractvalue { ptr, i32 } %17, 0
  store ptr %19, ptr %18, align 8
  %20 = getelementptr inbounds nuw { ptr, i32 }, ptr %5, i32 0, i32 1
  %21 = extractvalue { ptr, i32 } %17, 1
  store i32 %21, ptr %20, align 8
  br label %32

22:                                               ; preds = %4
  %23 = load ptr, ptr %6, align 8, !tbaa !3
  %24 = load ptr, ptr %7, align 8, !tbaa !3
  %25 = load ptr, ptr %8, align 8, !tbaa !3
  %26 = load i32, ptr %9, align 4, !tbaa !7
  %27 = call { ptr, i32 } @_ZN5boost8charconv6detail21from_chars_float_implIfEENS0_19from_chars_result_tIcEEPKcS6_RT_NS0_12chars_formatE(ptr noundef %23, ptr noundef %24, ptr noundef nonnull align 4 dereferenceable(4) %25, i32 noundef %26) #14
  %28 = getelementptr inbounds nuw { ptr, i32 }, ptr %5, i32 0, i32 0
  %29 = extractvalue { ptr, i32 } %27, 0
  store ptr %29, ptr %28, align 8
  %30 = getelementptr inbounds nuw { ptr, i32 }, ptr %5, i32 0, i32 1
  %31 = extractvalue { ptr, i32 } %27, 1
  store i32 %31, ptr %30, align 8
  br label %32

32:                                               ; preds = %22, %12
  %33 = load { ptr, i32 }, ptr %5, align 8
  ret { ptr, i32 } %33
}