; Function Attrs: mustprogress nounwind uwtable
define { ptr, i32 } @_ZN5boost8charconv17from_chars_erangeEPKcS2_RfNS0_12chars_formatE(ptr noundef %0, ptr noundef %1, ptr noundef nonnull align 4 dereferenceable(4) %2, i32 noundef %3) local_unnamed_addr #0 personality ptr @__gxx_personality_v0 {
  %.not = icmp eq i32 %3, 4
  br i1 %.not, label %7, label %5

5:                                                ; preds = %4
  %.sroa.0.0.insert.ext.i = zext i32 %3 to i64
  %.sroa.0.0.insert.insert.i = or disjoint i64 %.sroa.0.0.insert.ext.i, 197568495616
  %6 = tail call { ptr, i32 } @_ZN5boost8charconv6detail10fast_float19from_chars_advancedIfcEENS0_19from_chars_result_tIT0_EEPKS5_S8_RT_NS2_15parse_options_tIS5_EE(ptr noundef %0, ptr noundef %1, ptr noundef nonnull align 4 dereferenceable(4) %2, i64 %.sroa.0.0.insert.insert.i) #13
  br label %9

7:                                                ; preds = %4
  %8 = tail call { ptr, i32 } @_ZN5boost8charconv6detail21from_chars_float_implIfEENS0_19from_chars_result_tIcEEPKcS6_RT_NS0_12chars_formatE(ptr noundef %0, ptr noundef %1, ptr noundef nonnull align 4 dereferenceable(4) %2, i32 noundef 4) #13
  br label %9

9:                                                ; preds = %7, %5
  %.pn = phi { ptr, i32 } [ %6, %5 ], [ %8, %7 ]
  ret { ptr, i32 } %.pn
}